target datalayout = "e-m:e-p270:32:32-p271:32:32-p272:64:64-i64:64-i128:128-f80:128-n8:16:32:64-S128"
target triple = "x86_64-pc-linux-gnu"

; Function Attrs: nounwind uwtable
define internal void @poly1305_update_length(ptr noundef %0, i64 noundef %1) #0 {
  %3 = alloca ptr, align 8
  %4 = alloca i64, align 8
  %5 = alloca [8 x i8], align 1
  %6 = alloca i32, align 4
  store ptr %0, ptr %3, align 8, !tbaa !11
  store i64 %1, ptr %4, align 8, !tbaa !13
  call void @llvm.lifetime.start.p0(i64 8, ptr %5) #7
  call void @llvm.lifetime.start.p0(i64 4, ptr %6) #7
  store i32 0, ptr %6, align 4, !tbaa !25
  br label %7

7:                                                ; preds = %19, %2
  %8 = load i32, ptr %6, align 4, !tbaa !25
  %9 = zext i32 %8 to i64
  %10 = icmp ult i64 %9, 8
  br i1 %10, label %11, label %22

11:                                               ; preds = %7
  %12 = load i64, ptr %4, align 8, !tbaa !13
  %13 = trunc i64 %12 to i8
  %14 = load i32, ptr %6, align 4, !tbaa !25
  %15 = zext i32 %14 to i64
  %16 = getelementptr inbounds nuw [8 x i8], ptr %5, i64 0, i64 %15
  store i8 %13, ptr %16, align 1, !tbaa !27
  %17 = load i64, ptr %4, align 8, !tbaa !13
  %18 = lshr i64 %17, 8
  store i64 %18, ptr %4, align 8, !tbaa !13
  br label %19

19:                                               ; preds = %11
  %20 = load i32, ptr %6, align 4, !tbaa !25
  %21 = add i32 %20, 1
  store i32 %21, ptr %6, align 4, !tbaa !25
  br label %7, !llvm.loop !28

22:                                               ; preds = %7
  %23 = load ptr, ptr %3, align 8, !tbaa !11
  %24 = getelementptr inbounds [8 x i8], ptr %5, i64 0, i64 0
  call void @CRYPTO_poly1305_update(ptr noundef %23, ptr noundef %24, i64 noundef 8)
  call void @llvm.lifetime.end.p0(i64 4, ptr %6) #7
  call void @llvm.lifetime.end.p0(i64 8, ptr %5) #7
  ret void
}

; Function Attrs: nounwind uwtable
define internal void @poly1305_update_old(ptr noundef %0, ptr noundef %1, i64 noundef %2, ptr noundef %3, i64 noundef %4) #0 {
  %6 = alloca ptr, align 8
  %7 = alloca ptr, align 8
  %8 = alloca i64, align 8
  %9 = alloca ptr, align 8
  %10 = alloca i64, align 8
  store ptr %0, ptr %6, align 8, !tbaa !11
  store ptr %1, ptr %7, align 8, !tbaa !11
  store i64 %2, ptr %8, align 8, !tbaa !13
  store ptr %3, ptr %9, align 8, !tbaa !11
  store i64 %4, ptr %10, align 8, !tbaa !13
  %11 = load ptr, ptr %6, align 8, !tbaa !11
  %12 = load ptr, ptr %7, align 8, !tbaa !11
  %13 = load i64, ptr %8, align 8, !tbaa !13
  call void @CRYPTO_poly1305_update(ptr noundef %11, ptr noundef %12, i64 noundef %13)
  %14 = load ptr, ptr %6, align 8, !tbaa !11
  %15 = load i64, ptr %8, align 8, !tbaa !13
  call void @poly1305_update_length(ptr noundef %14, i64 noundef %15)
  %16 = load ptr, ptr %6, align 8, !tbaa !11
  %17 = load ptr, ptr %9, align 8, !tbaa !11
  %18 = load i64, ptr %10, align 8, !tbaa !13
  call void @CRYPTO_poly1305_update(ptr noundef %16, ptr noundef %17, i64 noundef %18)
  %19 = load ptr, ptr %6, align 8, !tbaa !11
  %20 = load i64, ptr %10, align 8, !tbaa !13
  call void @poly1305_update_length(ptr noundef %19, i64 noundef %20)
  ret void
}