; Function Attrs: nounwind uwtable
define internal void @poly1305_update_old(ptr noundef %0, ptr noundef %1, i64 noundef %2, ptr noundef %3, i64 noundef %4) #1 {
  %6 = alloca [8 x i8], align 1
  %7 = alloca [8 x i8], align 1
  tail call void @CRYPTO_poly1305_update(ptr noundef %0, ptr noundef %1, i64 noundef %2) #8
  call void @llvm.lifetime.start.p0(i64 8, ptr nonnull %7) #8
  br label %8

8:                                                ; preds = %8, %5
  %indvars.iv.i = phi i64 [ 0, %5 ], [ %indvars.iv.next.i, %8 ]
  %.057.i = phi i64 [ %2, %5 ], [ %11, %8 ]
  %9 = trunc i64 %.057.i to i8
  %10 = getelementptr inbounds nuw [8 x i8], ptr %7, i64 0, i64 %indvars.iv.i
  store i8 %9, ptr %10, align 1, !tbaa !17
  %11 = lshr i64 %.057.i, 8
  %indvars.iv.next.i = add nuw nsw i64 %indvars.iv.i, 1
  %exitcond.not.i = icmp eq i64 %indvars.iv.next.i, 8
  br i1 %exitcond.not.i, label %poly1305_update_length.exit, label %8, !llvm.loop !18

poly1305_update_length.exit:                      ; preds = %8
  call void @CRYPTO_poly1305_update(ptr noundef %0, ptr noundef nonnull %7, i64 noundef 8) #8
  call void @llvm.lifetime.end.p0(i64 8, ptr nonnull %7) #8
  call void @CRYPTO_poly1305_update(ptr noundef %0, ptr noundef %3, i64 noundef %4) #8
  call void @llvm.lifetime.start.p0(i64 8, ptr nonnull %6) #8
  br label %12

12:                                               ; preds = %12, %poly1305_update_length.exit
  %indvars.iv.i9 = phi i64 [ 0, %poly1305_update_length.exit ], [ %indvars.iv.next.i11, %12 ]
  %.057.i10 = phi i64 [ %4, %poly1305_update_length.exit ], [ %15, %12 ]
  %13 = trunc i64 %.057.i10 to i8
  %14 = getelementptr inbounds nuw [8 x i8], ptr %6, i64 0, i64 %indvars.iv.i9
  store i8 %13, ptr %14, align 1, !tbaa !17
  %15 = lshr i64 %.057.i10, 8
  %indvars.iv.next.i11 = add nuw nsw i64 %indvars.iv.i9, 1
  %exitcond.not.i12 = icmp eq i64 %indvars.iv.next.i11, 8
  br i1 %exitcond.not.i12, label %poly1305_update_length.exit13, label %12, !llvm.loop !18

poly1305_update_length.exit13:                    ; preds = %12
  call void @CRYPTO_poly1305_update(ptr noundef %0, ptr noundef nonnull %6, i64 noundef 8) #8
  call void @llvm.lifetime.end.p0(i64 8, ptr nonnull %6) #8
  ret void
}